Certificate:
    Data:
        Version: 1 (0x0)
        Serial Number: 1 (0x1)
    Signature Algorithm: md5WithRSAEncryption
        Issuer: C=US, ST=Unset, L=Unset, O=Unset, CN=www.example.com
        Validity
            Not Before: Sep  1 08:56:29 2013 GMT
            Not After : Sep  1 08:56:29 2014 GMT
        Subject: C=US, ST=Unset, O=Unset, CN=www.example.com
        Subject Public Key Info:
            Public Key Algorithm: rsaEncryption
                Public-Key: (1024 bit)
                Modulus:
                    00:bb:d0:f7:9a:08:cf:bc:1d:e4:f8:81:3a:ae:ce:
                    73:f5:be:40:5f:a5:75:56:f9:56:45:d8:68:f3:ce:
                    46:7e:70:70:66:44:ad:98:d4:77:4f:9e:6e:0d:15:
                    c8:ff:81:cf:09:75:9c:bf:1d:50:8c:52:dd:73:8e:
                    a8:63:59:09:84:85:01:ff:72:d8:cb:4e:d4:b8:21:
                    86:75:51:d6:26:a9:cb:46:b1:22:5f:a4:b4:63:fc:
                    2c:79:dc:5b:8d:d7:f3:3a:7b:cb:08:9c:8c:b4:44:
                    5c:d2:a3:10:45:6e:5b:bd:8a:53:1b:1e:1d:62:2e:
                    10:ee:f4:35:5c:68:33:c2:e9
                Exponent: 65537 (0x10001)
    Signature Algorithm: md5WithRSAEncryption
         90:fa:40:2c:3c:67:53:38:cd:31:67:7c:20:5c:b0:f8:4c:5c:
         a1:bb:aa:3d:f2:a6:e3:f3:03:14:87:6b:79:43:f2:69:65:40:
         e4:05:40:9f:3a:85:43:25:3b:ff:c3:b0:4c:45:ff:12:f5:3b:
         bc:b6:c6:c2:5b:69:a0:48:4b:3a:de:9d:2c:b1:c8:3a:02:da:
         a2:1d:09:aa:3a:69:d8:7f:c9:5d:31:fe:1b:4e:c0:2b:e2:45:
         8f:bf:91:35:a0:10:77:f2:87:2d:fe:8d:59:3d:98:99:a4:e2:
         71:3e:ea:c4:bd:77:74:30:92:a6:01:07:b4:b7:23:09:28:a6:
         93:7d
-----BEGIN CERTIFICATE-----
MIICDTCCAXYCAQEwDQYJKoZIhvcNAQEEBQAwVzELMAkGA1UEBhMCVVMxDjAMBgNV
BAgTBVVuc2V0MQ4wDAYDVQQHEwVVbnNldDEOMAwGA1UEChMFVW5zZXQxGDAWBgNV
BAMTD3d3dy5leGFtcGxlLmNvbTAeFw0xMzA5MDEwODU2MjlaFw0xNDA5MDEwODU2
MjlaMEcxCzAJBgNVBAYTAlVTMQ4wDAYDVQQIEwVVbnNldDEOMAwGA1UEChMFVW5z
ZXQxGDAWBgNVBAMTD3d3dy5leGFtcGxlLmNvbTCBnzANBgkqhkiG9w0BAQEFAAOB
jQAwgYkCgYEAu9D3mgjPvB3k+IE6rs5z9b5AX6V1VvlWRdho885GfnBwZkStmNR3
T55uDRXI/4HPCXWcvx1QjFLdc46oY1kJhIUB/3LYy07UuCGGdVHWJqnLRrEiX6S0
Y/wsedxbjdfzOnvLCJyMtERc0qMQRW5bvYpTGx4dYi4Q7vQ1XGgzwukCAwEAATAN
BgkqhkiG9w0BAQQFAAOBgQCQ+kAsPGdTOM0xZ3wgXLD4TFyhu6o98qbj8wMUh2t5
Q/JpZUDkBUCfOoVDJTv/w7BMRf8S9Tu8tsbCW2mgSEs63p0sscg6AtqiHQmqOmnY
f8ldMf4bTsAr4kWPv5E1oBB38oct/o1ZPZiZpOJxPurEvXd0MJKmAQe0tyMJKKaT
fQ==
-----END CERTIFICATE-----
